target datalayout = "e-m:e-p270:32:32-p271:32:32-p272:64:64-i64:64-i128:128-f80:128-n8:16:32:64-S128"
target triple = "x86_64-pc-linux-gnu"

%struct.If_Grp_t_ = type { i8, i8, [11 x i8] }

; Function Attrs: inlinehint nounwind uwtable
define internal i32 @If_CluGrp2Uns2(ptr noundef %0) #2 {
  %2 = alloca ptr, align 8
  %3 = alloca ptr, align 8
  %4 = alloca i32, align 4
  %5 = alloca i32, align 4
  store ptr %0, ptr %2, align 8, !tbaa !71
  call void @llvm.lifetime.start.p0(i64 8, ptr %3) #11
  %6 = load ptr, ptr %2, align 8, !tbaa !71
  store ptr %6, ptr %3, align 8, !tbaa !30
  call void @llvm.lifetime.start.p0(i64 4, ptr %4) #11
  store i32 0, ptr %4, align 4, !tbaa !3
  call void @llvm.lifetime.start.p0(i64 4, ptr %5) #11
  store i32 0, ptr %5, align 4, !tbaa !3
  br label %7

7:                                                ; preds = %23, %1
  %8 = load i32, ptr %5, align 4, !tbaa !3
  %9 = icmp slt i32 %8, 8
  br i1 %9, label %10, label %26

10:                                               ; preds = %7
  %11 = load ptr, ptr %3, align 8, !tbaa !30
  %12 = load i32, ptr %5, align 4, !tbaa !3
  %13 = sext i32 %12 to i64
  %14 = getelementptr inbounds i8, ptr %11, i64 %13
  %15 = load i8, ptr %14, align 1, !tbaa !32
  %16 = sext i8 %15 to i32
  %17 = and i32 %16, 15
  %18 = load i32, ptr %5, align 4, !tbaa !3
  %19 = shl i32 %18, 2
  %20 = shl i32 %17, %19
  %21 = load i32, ptr %4, align 4, !tbaa !3
  %22 = or i32 %21, %20
  store i32 %22, ptr %4, align 4, !tbaa !3
  br label %23

23:                                               ; preds = %10
  %24 = load i32, ptr %5, align 4, !tbaa !3
  %25 = add nsw i32 %24, 1
  store i32 %25, ptr %5, align 4, !tbaa !3
  br label %7, !llvm.loop !74

26:                                               ; preds = %7
  %27 = load i32, ptr %4, align 4, !tbaa !3
  call void @llvm.lifetime.end.p0(i64 4, ptr %5) #11
  call void @llvm.lifetime.end.p0(i64 4, ptr %4) #11
  call void @llvm.lifetime.end.p0(i64 8, ptr %3) #11
  ret i32 %27
}

; Function Attrs: inlinehint nounwind uwtable
define internal void @If_CluUns2Grp2(i32 noundef %0, ptr noundef %1) #2 {
  %3 = alloca i32, align 4
  %4 = alloca ptr, align 8
  %5 = alloca ptr, align 8
  %6 = alloca i32, align 4
  store i32 %0, ptr %3, align 4, !tbaa !3
  store ptr %1, ptr %4, align 8, !tbaa !71
  call void @llvm.lifetime.start.p0(i64 8, ptr %5) #11
  %7 = load ptr, ptr %4, align 8, !tbaa !71
  store ptr %7, ptr %5, align 8, !tbaa !30
  call void @llvm.lifetime.start.p0(i64 4, ptr %6) #11
  store i32 0, ptr %6, align 4, !tbaa !3
  br label %8

8:                                                ; preds = %22, %2
  %9 = load i32, ptr %6, align 4, !tbaa !3
  %10 = icmp slt i32 %9, 8
  br i1 %10, label %11, label %25

11:                                               ; preds = %8
  %12 = load i32, ptr %3, align 4, !tbaa !3
  %13 = load i32, ptr %6, align 4, !tbaa !3
  %14 = shl i32 %13, 2
  %15 = lshr i32 %12, %14
  %16 = and i32 %15, 15
  %17 = trunc i32 %16 to i8
  %18 = load ptr, ptr %5, align 8, !tbaa !30
  %19 = load i32, ptr %6, align 4, !tbaa !3
  %20 = sext i32 %19 to i64
  %21 = getelementptr inbounds i8, ptr %18, i64 %20
  store i8 %17, ptr %21, align 1, !tbaa !32
  br label %22

22:                                               ; preds = %11
  %23 = load i32, ptr %6, align 4, !tbaa !3
  %24 = add nsw i32 %23, 1
  store i32 %24, ptr %6, align 4, !tbaa !3
  br label %8, !llvm.loop !73

25:                                               ; preds = %8
  call void @llvm.lifetime.end.p0(i64 4, ptr %6) #11
  call void @llvm.lifetime.end.p0(i64 8, ptr %5) #11
  ret void
}

; Function Attrs: nounwind uwtable
define i32 @If_CluCheckXX(ptr noundef %0, ptr noundef %1, i32 noundef %2, i32 noundef %3, i32 noundef %4) #0 {
  %6 = alloca ptr, align 8
  %7 = alloca ptr, align 8
  %8 = alloca i32, align 4
  %9 = alloca i32, align 4
  %10 = alloca i32, align 4
  %11 = alloca %struct.If_Grp_t_, align 1
  %12 = alloca ptr, align 8
  store ptr %0, ptr %6, align 8, !tbaa !10
  store ptr %1, ptr %7, align 8, !tbaa !28
  store i32 %2, ptr %8, align 4, !tbaa !3
  store i32 %3, ptr %9, align 4, !tbaa !3
  store i32 %4, ptr %10, align 4, !tbaa !3
  call void @llvm.lifetime.start.p0(i64 13, ptr %11) #11
  call void @llvm.memset.p0.i64(ptr align 1 %11, i8 0, i64 13, i1 false)
  call void @llvm.lifetime.start.p0(i64 8, ptr %12) #11
  store ptr null, ptr %12, align 8, !tbaa !34
  %13 = load ptr, ptr %6, align 8, !tbaa !10
  %14 = icmp ne ptr %13, null
  br i1 %14, label %15, label %32

15:                                               ; preds = %5
  %16 = load i32, ptr %10, align 4, !tbaa !3
  %17 = icmp ne i32 %16, 0
  br i1 %17, label %18, label %32

18:                                               ; preds = %15
  %19 = load ptr, ptr %6, align 8, !tbaa !10
  %20 = load ptr, ptr %7, align 8, !tbaa !28
  %21 = call ptr @If_CluHashLookup2(ptr noundef %19, ptr noundef %20, i32 noundef 0)
  store ptr %21, ptr %12, align 8, !tbaa !34
  %22 = load ptr, ptr %12, align 8, !tbaa !34
  %23 = icmp ne ptr %22, null
  br i1 %23, label %24, label %31

24:                                               ; preds = %18
  %25 = load ptr, ptr %12, align 8, !tbaa !34
  %26 = load i32, ptr %25, align 4, !tbaa !3
  %27 = icmp ne i32 %26, 255
  br i1 %27, label %28, label %31

28:                                               ; preds = %24
  %29 = load ptr, ptr %12, align 8, !tbaa !34
  %30 = load i32, ptr %29, align 4, !tbaa !3
  call void @If_CluUns2Grp2(i32 noundef %30, ptr noundef %11)
  br label %31

31:                                               ; preds = %28, %24, %18
  br label %32

32:                                               ; preds = %31, %15, %5
  %33 = getelementptr inbounds nuw %struct.If_Grp_t_, ptr %11, i32 0, i32 0
  %34 = load i8, ptr %33, align 1, !tbaa !69
  %35 = sext i8 %34 to i32
  %36 = icmp eq i32 %35, 0
  br i1 %36, label %37, label %44

37:                                               ; preds = %32
  %38 = load ptr, ptr %7, align 8, !tbaa !28
  %39 = load i32, ptr %8, align 4, !tbaa !3
  %40 = load i32, ptr %9, align 4, !tbaa !3
  %41 = call i32 @acdXX_evaluate(ptr noundef %38, i32 noundef %39, i32 noundef %40)
  %42 = trunc i32 %41 to i8
  %43 = getelementptr inbounds nuw %struct.If_Grp_t_, ptr %11, i32 0, i32 0
  store i8 %42, ptr %43, align 1, !tbaa !69
  br label %44

44:                                               ; preds = %37, %32
  %45 = load ptr, ptr %12, align 8, !tbaa !34
  %46 = icmp ne ptr %45, null
  br i1 %46, label %47, label %50

47:                                               ; preds = %44
  %48 = call i32 @If_CluGrp2Uns2(ptr noundef %11)
  %49 = load ptr, ptr %12, align 8, !tbaa !34
  store i32 %48, ptr %49, align 4, !tbaa !3
  br label %50

50:                                               ; preds = %47, %44
  %51 = getelementptr inbounds nuw %struct.If_Grp_t_, ptr %11, i32 0, i32 0
  %52 = load i8, ptr %51, align 1, !tbaa !69
  %53 = sext i8 %52 to i32
  call void @llvm.lifetime.end.p0(i64 8, ptr %12) #11
  call void @llvm.lifetime.end.p0(i64 13, ptr %11) #11
  ret i32 %53
}