; Function Attrs: nounwind uwtable
define range(i32 -128, 128) i32 @If_CluCheckXX(ptr noundef %0, ptr noundef %1, i32 noundef %2, i32 noundef %3, i32 noundef %4) local_unnamed_addr #2 {
  %6 = alloca %struct.If_Grp_t_, align 1
  call void @llvm.lifetime.start.p0(i64 13, ptr nonnull %6) #17
  call void @llvm.memset.p0.i64(ptr noundef nonnull align 1 dereferenceable(13) %6, i8 0, i64 13, i1 false)
  %7 = icmp ne ptr %0, null
  %8 = icmp ne i32 %4, 0
  %or.cond = and i1 %7, %8
  br i1 %or.cond, label %9, label %If_CluUns2Grp2.exit.thread

9:                                                ; preds = %5
  %10 = tail call ptr @If_CluHashLookup2(ptr noundef nonnull %0, ptr noundef %1, i32 noundef 0)
  %.not = icmp eq ptr %10, null
  br i1 %.not, label %If_CluUns2Grp2.exit.thread, label %11

11:                                               ; preds = %9
  %12 = load i32, ptr %10, align 4, !tbaa !15
  %.not15 = icmp eq i32 %12, 255
  br i1 %.not15, label %If_CluUns2Grp2.exit.thread, label %.preheader24

.preheader24:                                     ; preds = %11, %.preheader24
  %indvars.iv.i = phi i64 [ %indvars.iv.next.i, %.preheader24 ], [ 0, %11 ]
  %indvars.iv.tr.i = trunc i64 %indvars.iv.i to i32
  %13 = shl i32 %indvars.iv.tr.i, 2
  %14 = lshr i32 %12, %13
  %15 = trunc i32 %14 to i8
  %16 = and i8 %15, 15
  %17 = getelementptr inbounds nuw i8, ptr %6, i64 %indvars.iv.i
  store i8 %16, ptr %17, align 1, !tbaa !24
  %indvars.iv.next.i = add nuw nsw i64 %indvars.iv.i, 1
  %exitcond.not.i = icmp eq i64 %indvars.iv.next.i, 8
  br i1 %exitcond.not.i, label %If_CluUns2Grp2.exit, label %.preheader24, !llvm.loop !63

If_CluUns2Grp2.exit:                              ; preds = %.preheader24
  %.pr.pre = load i8, ptr %6, align 1, !tbaa !64
  %18 = icmp eq i8 %.pr.pre, 0
  br i1 %18, label %If_CluUns2Grp2.exit.thread, label %21

If_CluUns2Grp2.exit.thread:                       ; preds = %11, %9, %5, %If_CluUns2Grp2.exit
  %.023 = phi ptr [ %10, %If_CluUns2Grp2.exit ], [ null, %5 ], [ null, %9 ], [ %10, %11 ]
  %19 = tail call i32 @acdXX_evaluate(ptr noundef %1, i32 noundef %2, i32 noundef %3) #17
  %20 = trunc i32 %19 to i8
  store i8 %20, ptr %6, align 1, !tbaa !64
  br label %21

21:                                               ; preds = %If_CluUns2Grp2.exit.thread, %If_CluUns2Grp2.exit
  %.pre = phi i8 [ %20, %If_CluUns2Grp2.exit.thread ], [ %.pr.pre, %If_CluUns2Grp2.exit ]
  %.022 = phi ptr [ %.023, %If_CluUns2Grp2.exit.thread ], [ %10, %If_CluUns2Grp2.exit ]
  %.not16 = icmp eq ptr %.022, null
  br i1 %.not16, label %29, label %.preheader

.preheader:                                       ; preds = %21, %.preheader
  %indvars.iv.i17 = phi i64 [ %indvars.iv.next.i19, %.preheader ], [ 0, %21 ]
  %.078.i = phi i32 [ %28, %.preheader ], [ 0, %21 ]
  %22 = getelementptr inbounds nuw i8, ptr %6, i64 %indvars.iv.i17
  %23 = load i8, ptr %22, align 1, !tbaa !24
  %24 = and i8 %23, 15
  %25 = zext nneg i8 %24 to i32
  %indvars.iv.tr.i18 = trunc i64 %indvars.iv.i17 to i32
  %26 = shl i32 %indvars.iv.tr.i18, 2
  %27 = shl nuw i32 %25, %26
  %28 = or i32 %27, %.078.i
  %indvars.iv.next.i19 = add nuw nsw i64 %indvars.iv.i17, 1
  %exitcond.not.i20 = icmp eq i64 %indvars.iv.next.i19, 8
  br i1 %exitcond.not.i20, label %If_CluGrp2Uns2.exit, label %.preheader, !llvm.loop !66

If_CluGrp2Uns2.exit:                              ; preds = %.preheader
  store i32 %28, ptr %.022, align 4, !tbaa !15
  br label %29

29:                                               ; preds = %If_CluGrp2Uns2.exit, %21
  %30 = sext i8 %.pre to i32
  call void @llvm.lifetime.end.p0(i64 13, ptr nonnull %6) #17
  ret i32 %30
}